target datalayout = "e-m:e-p270:32:32-p271:32:32-p272:64:64-i64:64-i128:128-f80:128-n8:16:32:64-S128"
target triple = "x86_64-pc-linux-gnu"

%struct.HashBuildState = type { ptr, double, ptr }
%struct.RelationData = type { %struct.RelFileLocator, ptr, i32, i32, i8, i8, i8, i8, i8, i32, i32, i32, i32, ptr, ptr, i32, %struct.LockInfoData, ptr, ptr, ptr, ptr, ptr, i8, ptr, ptr, ptr, ptr, ptr, ptr, i32, ptr, i8, ptr, ptr, i32, i8, i32, ptr, i8, ptr, ptr, ptr, ptr, ptr, ptr, ptr, i32, ptr, ptr, ptr, ptr, ptr, ptr, ptr, ptr, ptr, ptr, ptr, ptr, ptr, ptr, ptr, ptr, ptr, ptr, ptr, i32, i8, ptr }
%struct.RelFileLocator = type { i32, i32, i32 }
%struct.LockInfoData = type { %struct.LockRelId }
%struct.LockRelId = type { i32, i32 }
%struct.IndexTupleData = type { %struct.ItemPointerData, i16 }
%struct.ItemPointerData = type { %struct.BlockIdData, i16 }
%struct.BlockIdData = type { i16, i16 }

; Function Attrs: nounwind uwtable
define internal void @hashbuildCallback(ptr noundef %0, ptr noundef %1, ptr noundef %2, ptr noundef %3, i1 noundef zeroext %4, ptr noundef %5) #0 {
  %7 = alloca ptr, align 8
  %8 = alloca ptr, align 8
  %9 = alloca ptr, align 8
  %10 = alloca ptr, align 8
  %11 = alloca i8, align 1
  %12 = alloca ptr, align 8
  %13 = alloca ptr, align 8
  %14 = alloca [1 x i64], align 8
  %15 = alloca [1 x i8], align 1
  %16 = alloca ptr, align 8
  %17 = alloca i32, align 4
  store ptr %0, ptr %7, align 8
  store ptr %1, ptr %8, align 8
  store ptr %2, ptr %9, align 8
  store ptr %3, ptr %10, align 8
  %18 = zext i1 %4 to i8
  store i8 %18, ptr %11, align 1
  store ptr %5, ptr %12, align 8
  call void @llvm.lifetime.start.p0(i64 8, ptr %13) #6
  %19 = load ptr, ptr %12, align 8
  store ptr %19, ptr %13, align 8
  call void @llvm.lifetime.start.p0(i64 8, ptr %14) #6
  call void @llvm.lifetime.start.p0(i64 1, ptr %15) #6
  call void @llvm.lifetime.start.p0(i64 8, ptr %16) #6
  %20 = load ptr, ptr %7, align 8
  %21 = load ptr, ptr %9, align 8
  %22 = load ptr, ptr %10, align 8
  %23 = getelementptr inbounds [1 x i64], ptr %14, i64 0, i64 0
  %24 = getelementptr inbounds [1 x i8], ptr %15, i64 0, i64 0
  %25 = call zeroext i1 @_hash_convert_tuple(ptr noundef %20, ptr noundef %21, ptr noundef %22, ptr noundef %23, ptr noundef %24)
  br i1 %25, label %27, label %26

26:                                               ; preds = %6
  store i32 1, ptr %17, align 4
  br label %60

27:                                               ; preds = %6
  %28 = load ptr, ptr %13, align 8
  %29 = getelementptr inbounds nuw %struct.HashBuildState, ptr %28, i32 0, i32 0
  %30 = load ptr, ptr %29, align 8
  %31 = icmp ne ptr %30, null
  br i1 %31, label %32, label %39

32:                                               ; preds = %27
  %33 = load ptr, ptr %13, align 8
  %34 = getelementptr inbounds nuw %struct.HashBuildState, ptr %33, i32 0, i32 0
  %35 = load ptr, ptr %34, align 8
  %36 = load ptr, ptr %8, align 8
  %37 = getelementptr inbounds [1 x i64], ptr %14, i64 0, i64 0
  %38 = getelementptr inbounds [1 x i8], ptr %15, i64 0, i64 0
  call void @_h_spool(ptr noundef %35, ptr noundef %36, ptr noundef %37, ptr noundef %38)
  br label %55

39:                                               ; preds = %27
  %40 = load ptr, ptr %7, align 8
  %41 = getelementptr inbounds nuw %struct.RelationData, ptr %40, i32 0, i32 14
  %42 = load ptr, ptr %41, align 8
  %43 = getelementptr inbounds [1 x i64], ptr %14, i64 0, i64 0
  %44 = getelementptr inbounds [1 x i8], ptr %15, i64 0, i64 0
  %45 = call ptr @index_form_tuple(ptr noundef %42, ptr noundef %43, ptr noundef %44)
  store ptr %45, ptr %16, align 8
  %46 = load ptr, ptr %16, align 8
  %47 = getelementptr inbounds nuw %struct.IndexTupleData, ptr %46, i32 0, i32 0
  %48 = load ptr, ptr %8, align 8
  call void @llvm.memcpy.p0.p0.i64(ptr align 2 %47, ptr align 2 %48, i64 6, i1 false)
  %49 = load ptr, ptr %7, align 8
  %50 = load ptr, ptr %16, align 8
  %51 = load ptr, ptr %13, align 8
  %52 = getelementptr inbounds nuw %struct.HashBuildState, ptr %51, i32 0, i32 2
  %53 = load ptr, ptr %52, align 8
  call void @_hash_doinsert(ptr noundef %49, ptr noundef %50, ptr noundef %53, i1 noundef zeroext false)
  %54 = load ptr, ptr %16, align 8
  call void @pfree(ptr noundef %54)
  br label %55

55:                                               ; preds = %39, %32
  %56 = load ptr, ptr %13, align 8
  %57 = getelementptr inbounds nuw %struct.HashBuildState, ptr %56, i32 0, i32 1
  %58 = load double, ptr %57, align 8
  %59 = fadd double %58, 1.000000e+00
  store double %59, ptr %57, align 8
  store i32 0, ptr %17, align 4
  br label %60

60:                                               ; preds = %55, %26
  call void @llvm.lifetime.end.p0(i64 8, ptr %16) #6
  call void @llvm.lifetime.end.p0(i64 1, ptr %15) #6
  call void @llvm.lifetime.end.p0(i64 8, ptr %14) #6
  call void @llvm.lifetime.end.p0(i64 8, ptr %13) #6
  %61 = load i32, ptr %17, align 4
  switch i32 %61, label %63 [
    i32 0, label %62
    i32 1, label %62
  ]

62:                                               ; preds = %60, %60
  ret void

63:                                               ; preds = %60
  unreachable
}