; Function Attrs: nounwind uwtable
define internal void @hashbuildCallback(ptr noundef %0, ptr noundef %1, ptr noundef %2, ptr noundef %3, i1 zeroext %4, ptr noundef captures(none) %5) #0 {
  %7 = alloca [1 x i64], align 8
  %8 = alloca [1 x i8], align 1
  call void @llvm.lifetime.start.p0(i64 8, ptr nonnull %7) #9
  call void @llvm.lifetime.start.p0(i64 1, ptr nonnull %8) #9
  %9 = call zeroext i1 @_hash_convert_tuple(ptr noundef %0, ptr noundef %2, ptr noundef %3, ptr noundef nonnull %7, ptr noundef nonnull %8) #9
  br i1 %9, label %10, label %23

10:                                               ; preds = %6
  %11 = load ptr, ptr %5, align 8
  %.not = icmp eq ptr %11, null
  br i1 %.not, label %13, label %12

12:                                               ; preds = %10
  call void @_h_spool(ptr noundef nonnull %11, ptr noundef %1, ptr noundef nonnull %7, ptr noundef nonnull %8) #9
  br label %19

13:                                               ; preds = %10
  %14 = getelementptr inbounds nuw i8, ptr %0, i64 64
  %15 = load ptr, ptr %14, align 8
  %16 = call ptr @index_form_tuple(ptr noundef %15, ptr noundef nonnull %7, ptr noundef nonnull %8) #9
  call void @llvm.memcpy.p0.p0.i64(ptr noundef nonnull align 2 dereferenceable(6) %16, ptr noundef nonnull align 2 dereferenceable(6) %1, i64 6, i1 false)
  %17 = getelementptr inbounds nuw i8, ptr %5, i64 16
  %18 = load ptr, ptr %17, align 8
  call void @_hash_doinsert(ptr noundef %0, ptr noundef nonnull %16, ptr noundef %18, i1 noundef zeroext false) #9
  call void @pfree(ptr noundef nonnull %16) #9
  br label %19

19:                                               ; preds = %13, %12
  %20 = getelementptr inbounds nuw i8, ptr %5, i64 8
  %21 = load double, ptr %20, align 8
  %22 = fadd double %21, 1.000000e+00
  store double %22, ptr %20, align 8
  br label %23

23:                                               ; preds = %6, %19
  call void @llvm.lifetime.end.p0(i64 1, ptr nonnull %8) #9
  call void @llvm.lifetime.end.p0(i64 8, ptr nonnull %7) #9
  ret void
}